; Function Attrs: mustprogress uwtable
define internal fastcc void @_ZL24test_parse_port_manifestN5vcpkg10StringViewE11PrintErrors(ptr dead_on_unwind noalias nonnull writable align 8 %0, ptr %1, i64 %2, i1 noundef zeroext %3) unnamed_addr #1 personality ptr @__gxx_personality_v0 {
  %5 = alloca %"struct.vcpkg::Json::Object", align 8
  call void @llvm.lifetime.start.p0(i64 24, ptr nonnull %5) #22
  call fastcc void @_ZL17parse_json_objectN5vcpkg10StringViewE(ptr dead_on_unwind noalias writable align 8 %5, ptr %1, i64 %2)
  tail call void @llvm.experimental.noalias.scope.decl(metadata !1157)
  %6 = load ptr, ptr @_ZN5vcpkg9null_sinkE, align 8, !tbaa !571, !noalias !1157
  invoke void @_ZN5vcpkg17SourceControlFile26parse_port_manifest_objectENS_10StringViewERKNS_4Json6ObjectERNS_11MessageSinkE(ptr dead_on_unwind nonnull writable sret(%"struct.vcpkg::ExpectedT") align 8 %0, ptr nonnull @.str.100, i64 15, ptr noundef nonnull align 8 dereferenceable(24) %5, ptr noundef nonnull align 8 dereferenceable(8) %6)
          to label %.noexc unwind label %35

.noexc:                                           ; preds = %4
  %7 = getelementptr inbounds nuw i8, ptr %0, i64 32
  %8 = load i8, ptr %7, align 8, !tbaa !12, !range !15, !alias.scope !1157, !noundef !16
  %9 = trunc nuw i8 %8 to i1
  %or.cond.i = and i1 %3, %9
  br i1 %or.cond.i, label %_ZNR5vcpkg9ExpectedTISt10unique_ptrINS_17SourceControlFileESt14default_deleteIS2_EENS_15LocalizedStringEE5errorEv.exit.i, label %_ZL24test_parse_port_manifestRKN5vcpkg4Json6ObjectE11PrintErrors.exit

_ZNR5vcpkg9ExpectedTISt10unique_ptrINS_17SourceControlFileESt14default_deleteIS2_EENS_15LocalizedStringEE5errorEv.exit.i: ; preds = %.noexc
  %10 = call { ptr, i64 } @_ZNK5vcpkg15LocalizedStringcvNS_10StringViewEEv(ptr noundef nonnull align 8 dereferenceable(32) %0) #22
  %11 = extractvalue { ptr, i64 } %10, 0
  %12 = extractvalue { ptr, i64 } %10, 1
  invoke void @_ZN5vcpkg3msg22write_unlocalized_textENS_5ColorENS_10StringViewE(i8 noundef signext 49, ptr %11, i64 %12)
          to label %.noexc.i unwind label %13

.noexc.i:                                         ; preds = %_ZNR5vcpkg9ExpectedTISt10unique_ptrINS_17SourceControlFileESt14default_deleteIS2_EENS_15LocalizedStringEE5errorEv.exit.i
  invoke void @_ZN5vcpkg3msg22write_unlocalized_textENS_5ColorENS_10StringViewE(i8 noundef signext 0, ptr nonnull @.str.101, i64 1)
          to label %_ZL24test_parse_port_manifestRKN5vcpkg4Json6ObjectE11PrintErrors.exit unwind label %13

13:                                               ; preds = %.noexc.i, %_ZNR5vcpkg9ExpectedTISt10unique_ptrINS_17SourceControlFileESt14default_deleteIS2_EENS_15LocalizedStringEE5errorEv.exit.i
  %14 = landingpad { ptr, i32 }
          cleanup
  call void @_ZN5vcpkg9ExpectedTISt10unique_ptrINS_17SourceControlFileESt14default_deleteIS2_EENS_15LocalizedStringEED2Ev(ptr noundef nonnull align 8 dereferenceable(33) %0) #22
  br label %.body

_ZL24test_parse_port_manifestRKN5vcpkg4Json6ObjectE11PrintErrors.exit: ; preds = %.noexc.i, %.noexc
  %15 = load ptr, ptr %5, align 8, !tbaa !109
  %16 = getelementptr inbounds nuw i8, ptr %5, i64 8
  %17 = load ptr, ptr %16, align 8, !tbaa !108
  %.not4.i.i.i.i.i = icmp eq ptr %15, %17
  br i1 %.not4.i.i.i.i.i, label %_ZSt8_DestroyIPSt4pairINSt7__cxx1112basic_stringIcSt11char_traitsIcESaIcEEEN5vcpkg4Json5ValueEESA_EvT_SC_RSaIT0_E.exit.i.i, label %.lr.ph.i.i.i.i.i

.lr.ph.i.i.i.i.i:                                 ; preds = %_ZL24test_parse_port_manifestRKN5vcpkg4Json6ObjectE11PrintErrors.exit, %_ZSt8_DestroyISt4pairINSt7__cxx1112basic_stringIcSt11char_traitsIcESaIcEEEN5vcpkg4Json5ValueEEEvPT_.exit.i.i.i.i.i
  %.05.i.i.i.i.i = phi ptr [ %27, %_ZSt8_DestroyISt4pairINSt7__cxx1112basic_stringIcSt11char_traitsIcESaIcEEEN5vcpkg4Json5ValueEEEvPT_.exit.i.i.i.i.i ], [ %15, %_ZL24test_parse_port_manifestRKN5vcpkg4Json6ObjectE11PrintErrors.exit ]
  %18 = getelementptr inbounds nuw i8, ptr %.05.i.i.i.i.i, i64 32
  call void @_ZN5vcpkg4Json5ValueD1Ev(ptr noundef nonnull align 8 dereferenceable(8) %18) #22
  %19 = load ptr, ptr %.05.i.i.i.i.i, align 8, !tbaa !102
  %20 = getelementptr inbounds nuw i8, ptr %.05.i.i.i.i.i, i64 16
  %21 = icmp eq ptr %19, %20
  br i1 %21, label %_ZNKSt7__cxx1112basic_stringIcSt11char_traitsIcESaIcEE11_M_is_localEv.exit.thread.i.i.i.i.i.i.i.i.i, label %_ZNKSt7__cxx1112basic_stringIcSt11char_traitsIcESaIcEE11_M_is_localEv.exit.i.i.i.i.i.i.i.i.i

_ZNKSt7__cxx1112basic_stringIcSt11char_traitsIcESaIcEE11_M_is_localEv.exit.thread.i.i.i.i.i.i.i.i.i: ; preds = %.lr.ph.i.i.i.i.i
  %22 = getelementptr inbounds nuw i8, ptr %.05.i.i.i.i.i, i64 8
  %23 = load i64, ptr %22, align 8, !tbaa !103
  %24 = icmp ult i64 %23, 16
  call void @llvm.assume(i1 %24)
  br label %_ZSt8_DestroyISt4pairINSt7__cxx1112basic_stringIcSt11char_traitsIcESaIcEEEN5vcpkg4Json5ValueEEEvPT_.exit.i.i.i.i.i

_ZNKSt7__cxx1112basic_stringIcSt11char_traitsIcESaIcEE11_M_is_localEv.exit.i.i.i.i.i.i.i.i.i: ; preds = %.lr.ph.i.i.i.i.i
  %25 = load i64, ptr %20, align 8, !tbaa !104
  %26 = add i64 %25, 1
  call void @_ZdlPvm(ptr noundef %19, i64 noundef %26) #24
  br label %_ZSt8_DestroyISt4pairINSt7__cxx1112basic_stringIcSt11char_traitsIcESaIcEEEN5vcpkg4Json5ValueEEEvPT_.exit.i.i.i.i.i

_ZSt8_DestroyISt4pairINSt7__cxx1112basic_stringIcSt11char_traitsIcESaIcEEEN5vcpkg4Json5ValueEEEvPT_.exit.i.i.i.i.i: ; preds = %_ZNKSt7__cxx1112basic_stringIcSt11char_traitsIcESaIcEE11_M_is_localEv.exit.i.i.i.i.i.i.i.i.i, %_ZNKSt7__cxx1112basic_stringIcSt11char_traitsIcESaIcEE11_M_is_localEv.exit.thread.i.i.i.i.i.i.i.i.i
  %27 = getelementptr inbounds nuw i8, ptr %.05.i.i.i.i.i, i64 40
  %.not.i.i.i.i.i = icmp eq ptr %27, %17
  br i1 %.not.i.i.i.i.i, label %_ZSt8_DestroyIPSt4pairINSt7__cxx1112basic_stringIcSt11char_traitsIcESaIcEEEN5vcpkg4Json5ValueEESA_EvT_SC_RSaIT0_E.exitthread-pre-split.i.i, label %.lr.ph.i.i.i.i.i, !llvm.loop !208

_ZSt8_DestroyIPSt4pairINSt7__cxx1112basic_stringIcSt11char_traitsIcESaIcEEEN5vcpkg4Json5ValueEESA_EvT_SC_RSaIT0_E.exitthread-pre-split.i.i: ; preds = %_ZSt8_DestroyISt4pairINSt7__cxx1112basic_stringIcSt11char_traitsIcESaIcEEEN5vcpkg4Json5ValueEEEvPT_.exit.i.i.i.i.i
  %.pr.i.i = load ptr, ptr %5, align 8, !tbaa !109
  br label %_ZSt8_DestroyIPSt4pairINSt7__cxx1112basic_stringIcSt11char_traitsIcESaIcEEEN5vcpkg4Json5ValueEESA_EvT_SC_RSaIT0_E.exit.i.i

_ZSt8_DestroyIPSt4pairINSt7__cxx1112basic_stringIcSt11char_traitsIcESaIcEEEN5vcpkg4Json5ValueEESA_EvT_SC_RSaIT0_E.exit.i.i: ; preds = %_ZSt8_DestroyIPSt4pairINSt7__cxx1112basic_stringIcSt11char_traitsIcESaIcEEEN5vcpkg4Json5ValueEESA_EvT_SC_RSaIT0_E.exitthread-pre-split.i.i, %_ZL24test_parse_port_manifestRKN5vcpkg4Json6ObjectE11PrintErrors.exit
  %28 = phi ptr [ %.pr.i.i, %_ZSt8_DestroyIPSt4pairINSt7__cxx1112basic_stringIcSt11char_traitsIcESaIcEEEN5vcpkg4Json5ValueEESA_EvT_SC_RSaIT0_E.exitthread-pre-split.i.i ], [ %15, %_ZL24test_parse_port_manifestRKN5vcpkg4Json6ObjectE11PrintErrors.exit ]
  %.not.i.i.i.i = icmp eq ptr %28, null
  br i1 %.not.i.i.i.i, label %_ZN5vcpkg4Json6ObjectD2Ev.exit, label %29

29:                                               ; preds = %_ZSt8_DestroyIPSt4pairINSt7__cxx1112basic_stringIcSt11char_traitsIcESaIcEEEN5vcpkg4Json5ValueEESA_EvT_SC_RSaIT0_E.exit.i.i
  %30 = getelementptr inbounds nuw i8, ptr %5, i64 16
  %31 = load ptr, ptr %30, align 8, !tbaa !197
  %32 = ptrtoint ptr %31 to i64
  %33 = ptrtoint ptr %28 to i64
  %34 = sub i64 %32, %33
  call void @_ZdlPvm(ptr noundef nonnull %28, i64 noundef %34) #24
  br label %_ZN5vcpkg4Json6ObjectD2Ev.exit

_ZN5vcpkg4Json6ObjectD2Ev.exit:                   ; preds = %_ZSt8_DestroyIPSt4pairINSt7__cxx1112basic_stringIcSt11char_traitsIcESaIcEEEN5vcpkg4Json5ValueEESA_EvT_SC_RSaIT0_E.exit.i.i, %29
  call void @llvm.lifetime.end.p0(i64 24, ptr nonnull %5) #22
  ret void

35:                                               ; preds = %4
  %36 = landingpad { ptr, i32 }
          cleanup
  br label %.body

.body:                                            ; preds = %13, %35
  %eh.lpad-body = phi { ptr, i32 } [ %36, %35 ], [ %14, %13 ]
  call void @_ZN5vcpkg4Json6ObjectD2Ev(ptr noundef nonnull align 8 dereferenceable(24) %5) #22
  call void @llvm.lifetime.end.p0(i64 24, ptr nonnull %5) #22
  resume { ptr, i32 } %eh.lpad-body
}